target datalayout = "e-m:e-p270:32:32-p271:32:32-p272:64:64-i64:64-i128:128-f80:128-n8:16:32:64-S128"
target triple = "x86_64-pc-linux-gnu"

%struct.rhash_context_ext = type { %struct.rhash_context, i32, i32, i32, ptr, ptr, ptr, [0 x %struct.rhash_vector_item] }
%struct.rhash_context = type { i64, i32 }
%struct.rhash_vector_item = type { ptr, ptr }
%struct.rhash_hash_info = type { ptr, i64, i64, ptr, ptr, ptr, ptr }

; Function Attrs: nounwind uwtable
define dso_local i32 @rhash_final(ptr noundef %0, ptr noundef %1) #0 {
  %3 = alloca i32, align 4
  %4 = alloca ptr, align 8
  %5 = alloca ptr, align 8
  %6 = alloca i32, align 4
  %7 = alloca [130 x i8], align 16
  %8 = alloca ptr, align 8
  %9 = alloca ptr, align 8
  %10 = alloca i32, align 4
  %11 = alloca ptr, align 8
  store ptr %0, ptr %4, align 8, !tbaa !33
  store ptr %1, ptr %5, align 8, !tbaa !25
  call void @llvm.lifetime.start.p0(i64 4, ptr %6) #8
  store i32 0, ptr %6, align 4, !tbaa !4
  call void @llvm.lifetime.start.p0(i64 130, ptr %7) #8
  call void @llvm.lifetime.start.p0(i64 8, ptr %8) #8
  %12 = load ptr, ptr %5, align 8, !tbaa !25
  %13 = icmp ne ptr %12, null
  br i1 %13, label %14, label %16

14:                                               ; preds = %2
  %15 = load ptr, ptr %5, align 8, !tbaa !25
  br label %18

16:                                               ; preds = %2
  %17 = getelementptr inbounds [130 x i8], ptr %7, i64 0, i64 0
  br label %18

18:                                               ; preds = %16, %14
  %19 = phi ptr [ %15, %14 ], [ %17, %16 ]
  store ptr %19, ptr %8, align 8, !tbaa !25
  call void @llvm.lifetime.start.p0(i64 8, ptr %9) #8
  %20 = load ptr, ptr %4, align 8, !tbaa !33
  store ptr %20, ptr %9, align 8, !tbaa !13
  %21 = load ptr, ptr %9, align 8, !tbaa !13
  %22 = getelementptr inbounds nuw %struct.rhash_context_ext, ptr %21, i32 0, i32 2
  %23 = load i32, ptr %22, align 4, !tbaa !4
  %24 = and i32 %23, 3
  %25 = icmp eq i32 %24, 3
  br i1 %25, label %26, label %27

26:                                               ; preds = %18
  store i32 0, ptr %3, align 4
  store i32 1, ptr %10, align 4
  br label %62

27:                                               ; preds = %18
  store i32 0, ptr %6, align 4, !tbaa !4
  br label %28

28:                                               ; preds = %54, %27
  %29 = load i32, ptr %6, align 4, !tbaa !4
  %30 = load ptr, ptr %9, align 8, !tbaa !13
  %31 = getelementptr inbounds nuw %struct.rhash_context_ext, ptr %30, i32 0, i32 1
  %32 = load i32, ptr %31, align 8, !tbaa !4
  %33 = icmp ult i32 %29, %32
  br i1 %33, label %34, label %57

34:                                               ; preds = %28
  call void @llvm.lifetime.start.p0(i64 8, ptr %11) #8
  %35 = load ptr, ptr %9, align 8, !tbaa !13
  %36 = getelementptr inbounds nuw %struct.rhash_context_ext, ptr %35, i32 0, i32 7
  %37 = load i32, ptr %6, align 4, !tbaa !4
  %38 = zext i32 %37 to i64
  %39 = getelementptr inbounds nuw [0 x %struct.rhash_vector_item], ptr %36, i64 0, i64 %38
  %40 = getelementptr inbounds nuw %struct.rhash_vector_item, ptr %39, i32 0, i32 0
  %41 = load ptr, ptr %40, align 8, !tbaa !27
  store ptr %41, ptr %11, align 8, !tbaa !15
  %42 = load ptr, ptr %11, align 8, !tbaa !15
  %43 = getelementptr inbounds nuw %struct.rhash_hash_info, ptr %42, i32 0, i32 5
  %44 = load ptr, ptr %43, align 8, !tbaa !42
  %45 = load ptr, ptr %9, align 8, !tbaa !13
  %46 = getelementptr inbounds nuw %struct.rhash_context_ext, ptr %45, i32 0, i32 7
  %47 = load i32, ptr %6, align 4, !tbaa !4
  %48 = zext i32 %47 to i64
  %49 = getelementptr inbounds nuw [0 x %struct.rhash_vector_item], ptr %46, i64 0, i64 %48
  %50 = getelementptr inbounds nuw %struct.rhash_vector_item, ptr %49, i32 0, i32 1
  %51 = load ptr, ptr %50, align 8, !tbaa !29
  %52 = load ptr, ptr %8, align 8, !tbaa !25
  call void %44(ptr noundef %51, ptr noundef %52)
  %53 = getelementptr inbounds [130 x i8], ptr %7, i64 0, i64 0
  store ptr %53, ptr %8, align 8, !tbaa !25
  call void @llvm.lifetime.end.p0(i64 8, ptr %11) #8
  br label %54

54:                                               ; preds = %34
  %55 = load i32, ptr %6, align 4, !tbaa !4
  %56 = add i32 %55, 1
  store i32 %56, ptr %6, align 4, !tbaa !4
  br label %28, !llvm.loop !43

57:                                               ; preds = %28
  %58 = load ptr, ptr %9, align 8, !tbaa !13
  %59 = getelementptr inbounds nuw %struct.rhash_context_ext, ptr %58, i32 0, i32 2
  %60 = load i32, ptr %59, align 4, !tbaa !4
  %61 = or i32 %60, 2
  store i32 %61, ptr %59, align 4, !tbaa !4
  store i32 0, ptr %3, align 4
  store i32 1, ptr %10, align 4
  br label %62

62:                                               ; preds = %57, %26
  call void @llvm.lifetime.end.p0(i64 8, ptr %9) #8
  call void @llvm.lifetime.end.p0(i64 8, ptr %8) #8
  call void @llvm.lifetime.end.p0(i64 130, ptr %7) #8
  call void @llvm.lifetime.end.p0(i64 4, ptr %6) #8
  %63 = load i32, ptr %3, align 4
  ret i32 %63
}