; Function Attrs: nounwind uwtable
define dso_local noundef i32 @rhash_final(ptr noundef captures(none) %0, ptr noundef %1) local_unnamed_addr #0 {
  %3 = alloca [130 x i8], align 16
  call void @llvm.lifetime.start.p0(i64 130, ptr nonnull %3) #15
  %4 = getelementptr inbounds nuw i8, ptr %0, i64 20
  %5 = load i32, ptr %4, align 4, !tbaa !4
  %6 = and i32 %5, 3
  %7 = icmp eq i32 %6, 3
  br i1 %7, label %25, label %8

8:                                                ; preds = %2
  %9 = getelementptr inbounds nuw i8, ptr %0, i64 16
  %10 = load i32, ptr %9, align 8, !tbaa !4
  %.not18 = icmp eq i32 %10, 0
  br i1 %.not18, label %._crit_edge, label %.lr.ph

.lr.ph:                                           ; preds = %8
  %.not = icmp eq ptr %1, null
  %11 = select i1 %.not, ptr %3, ptr %1
  %12 = getelementptr inbounds nuw i8, ptr %0, i64 56
  br label %13

13:                                               ; preds = %.lr.ph, %13
  %indvars.iv = phi i64 [ 0, %.lr.ph ], [ %indvars.iv.next, %13 ]
  %.01516 = phi ptr [ %11, %.lr.ph ], [ %3, %13 ]
  %14 = getelementptr inbounds nuw [0 x %struct.rhash_vector_item], ptr %12, i64 0, i64 %indvars.iv
  %15 = load ptr, ptr %14, align 8, !tbaa !20
  %16 = getelementptr inbounds nuw i8, ptr %15, i64 40
  %17 = load ptr, ptr %16, align 8, !tbaa !32
  %18 = getelementptr inbounds nuw i8, ptr %14, i64 8
  %19 = load ptr, ptr %18, align 8, !tbaa !22
  call void %17(ptr noundef %19, ptr noundef %.01516) #15
  %indvars.iv.next = add nuw nsw i64 %indvars.iv, 1
  %20 = load i32, ptr %9, align 8, !tbaa !4
  %21 = zext i32 %20 to i64
  %22 = icmp samesign ult i64 %indvars.iv.next, %21
  br i1 %22, label %13, label %._crit_edge.loopexit, !llvm.loop !33

._crit_edge.loopexit:                             ; preds = %13
  %.pre = load i32, ptr %4, align 4, !tbaa !4
  br label %._crit_edge

._crit_edge:                                      ; preds = %._crit_edge.loopexit, %8
  %23 = phi i32 [ %.pre, %._crit_edge.loopexit ], [ %5, %8 ]
  %24 = or i32 %23, 2
  store i32 %24, ptr %4, align 4, !tbaa !4
  br label %25

25:                                               ; preds = %2, %._crit_edge
  call void @llvm.lifetime.end.p0(i64 130, ptr nonnull %3) #15
  ret i32 0
}